; Function Attrs: nounwind uwtable
define dso_local nonnull ptr @repo_get_index_file(ptr noundef readonly captures(none) %0) local_unnamed_addr #0 {
  %2 = getelementptr inbounds nuw i8, ptr %0, i64 232
  %3 = load ptr, ptr %2, align 8, !tbaa !53
  %.not = icmp eq ptr %3, null
  br i1 %.not, label %4, label %5

4:                                                ; preds = %1
  tail call void (ptr, i32, ptr, ...) @BUG_fl(ptr noundef nonnull @.str, i32 noundef 118, ptr noundef nonnull @.str.1) #11
  unreachable

5:                                                ; preds = %1
  ret ptr %3
}